target datalayout = "e-m:e-p270:32:32-p271:32:32-p272:64:64-i64:64-i128:128-f80:128-n8:16:32:64-S128"
target triple = "x86_64-pc-linux-gnu"

%struct.lua_State = type { %struct.GCRef, i8, i8, i8, i8, %struct.MRef, %struct.GCRef, ptr, ptr, %struct.MRef, %struct.MRef, %struct.GCRef, %struct.GCRef, ptr, i32 }
%struct.MRef = type { i64 }
%struct.GCRef = type { i64 }
%union.TValue = type { i64 }
%struct.GCtab = type { %struct.GCRef, i8, i8, i8, i8, %struct.MRef, %struct.GCRef, %struct.GCRef, %struct.MRef, i32, i32, %struct.MRef }
%struct.Node = type { %union.TValue, %union.TValue, %struct.MRef }
%struct.GChead = type { %struct.GCRef, i8, i8, i8, i8, %struct.GCRef, %struct.GCRef, %struct.GCRef }
%struct.SBuf = type { ptr, ptr, ptr, %struct.MRef }
%struct.global_State = type { ptr, ptr, %struct.GCState, %struct.GCstr, i8, i8, i8, i8, %struct.StrInternState, i32, %struct.GCRef, %struct.SBuf, %union.TValue, %union.TValue, %struct.Node, %union.TValue, %struct.GCupval, i32, i32, ptr, ptr, ptr, i32, i32, %struct.GCRef, %struct.MRef, %struct.MRef, %struct.PRNGState, [39 x %struct.GCRef] }
%struct.GCState = type { i64, i64, i8, i8, i8, i8, i32, %struct.GCRef, %struct.MRef, %struct.GCRef, %struct.GCRef, %struct.GCRef, %struct.GCRef, i64, i64, i32, i32, %struct.MRef }
%struct.GCstr = type { %struct.GCRef, i8, i8, i8, i8, i32, i32, i32 }
%struct.StrInternState = type { ptr, i32, i32, i32, i8, i8, i8, i8, i64 }
%struct.GCupval = type { %struct.GCRef, i8, i8, i8, i8, %union.anon, %struct.MRef, i32 }
%union.anon = type { %struct.anon.1 }
%struct.anon.1 = type { %struct.GCRef, %struct.GCRef }
%struct.PRNGState = type { [4 x i64] }

@.str.3 = private unnamed_addr constant [23 x i8] c"copy of dead GC object\00", align 1

; Function Attrs: alwaysinline nounwind uwtable
define internal void @checklivetv(ptr noundef %0, ptr noundef %1, ptr noundef %2) #3 {
  %4 = alloca ptr, align 8
  %5 = alloca ptr, align 8
  %6 = alloca ptr, align 8
  store ptr %0, ptr %4, align 8, !tbaa !4
  store ptr %1, ptr %5, align 8, !tbaa !21
  store ptr %2, ptr %6, align 8, !tbaa !44
  ret void
}

; Function Attrs: alwaysinline nounwind uwtable
define internal void @lj_gc_barrierback(ptr noundef %0, ptr noundef %1) #3 {
  %3 = alloca ptr, align 8
  %4 = alloca ptr, align 8
  %5 = alloca ptr, align 8
  store ptr %0, ptr %3, align 8, !tbaa !56
  store ptr %1, ptr %4, align 8, !tbaa !17
  call void @llvm.lifetime.start.p0(i64 8, ptr %5) #7
  %6 = load ptr, ptr %4, align 8, !tbaa !17
  store ptr %6, ptr %5, align 8, !tbaa !58
  %7 = load ptr, ptr %5, align 8, !tbaa !58
  %8 = getelementptr inbounds nuw %struct.GChead, ptr %7, i32 0, i32 1
  %9 = load i8, ptr %8, align 8, !tbaa !16
  %10 = zext i8 %9 to i32
  %11 = and i32 %10, 251
  %12 = trunc i32 %11 to i8
  store i8 %12, ptr %8, align 8, !tbaa !16
  %13 = load ptr, ptr %3, align 8, !tbaa !56
  %14 = getelementptr inbounds nuw %struct.global_State, ptr %13, i32 0, i32 2
  %15 = getelementptr inbounds nuw %struct.GCState, ptr %14, i32 0, i32 10
  %16 = getelementptr inbounds nuw %struct.GCRef, ptr %15, i32 0, i32 0
  %17 = load i64, ptr %16, align 8, !tbaa !60
  %18 = load ptr, ptr %4, align 8, !tbaa !17
  %19 = getelementptr inbounds nuw %struct.GCtab, ptr %18, i32 0, i32 6
  %20 = getelementptr inbounds nuw %struct.GCRef, ptr %19, i32 0, i32 0
  store i64 %17, ptr %20, align 8, !tbaa !61
  %21 = load ptr, ptr %5, align 8, !tbaa !58
  %22 = ptrtoint ptr %21 to i64
  %23 = load ptr, ptr %3, align 8, !tbaa !56
  %24 = getelementptr inbounds nuw %struct.global_State, ptr %23, i32 0, i32 2
  %25 = getelementptr inbounds nuw %struct.GCState, ptr %24, i32 0, i32 10
  %26 = getelementptr inbounds nuw %struct.GCRef, ptr %25, i32 0, i32 0
  store i64 %22, ptr %26, align 8, !tbaa !60
  call void @llvm.lifetime.end.p0(i64 8, ptr %5) #7
  ret void
}

; Function Attrs: alwaysinline nounwind uwtable
define internal void @copyTV(ptr noundef %0, ptr noundef %1, ptr noundef %2) #3 {
  %4 = alloca ptr, align 8
  %5 = alloca ptr, align 8
  %6 = alloca ptr, align 8
  store ptr %0, ptr %4, align 8, !tbaa !4
  store ptr %1, ptr %5, align 8, !tbaa !21
  store ptr %2, ptr %6, align 8, !tbaa !21
  %7 = load ptr, ptr %5, align 8, !tbaa !21
  %8 = load ptr, ptr %6, align 8, !tbaa !21
  call void @llvm.memcpy.p0.p0.i64(ptr align 8 %7, ptr align 8 %8, i64 8, i1 false), !tbaa.struct !55
  %9 = load ptr, ptr %4, align 8, !tbaa !4
  %10 = load ptr, ptr %5, align 8, !tbaa !21
  call void @checklivetv(ptr noundef %9, ptr noundef %10, ptr noundef @.str.3)
  ret void
}

; Function Attrs: nounwind uwtable
define internal i32 @lj_cf_table_insert(ptr noundef %0) #0 {
  %2 = alloca ptr, align 8
  %3 = alloca ptr, align 8
  %4 = alloca i32, align 4
  %5 = alloca i32, align 4
  %6 = alloca i32, align 4
  %7 = alloca ptr, align 8
  %8 = alloca ptr, align 8
  %9 = alloca ptr, align 8
  store ptr %0, ptr %2, align 8, !tbaa !4
  call void @llvm.lifetime.start.p0(i64 8, ptr %3) #7
  %10 = load ptr, ptr %2, align 8, !tbaa !4
  %11 = call ptr @lj_lib_checktab(ptr noundef %10, i32 noundef 1)
  store ptr %11, ptr %3, align 8, !tbaa !17
  call void @llvm.lifetime.start.p0(i64 4, ptr %4) #7
  call void @llvm.lifetime.start.p0(i64 4, ptr %5) #7
  %12 = load ptr, ptr %3, align 8, !tbaa !17
  %13 = call i32 @lj_tab_len(ptr noundef %12)
  %14 = add nsw i32 %13, 1
  store i32 %14, ptr %5, align 4, !tbaa !33
  call void @llvm.lifetime.start.p0(i64 4, ptr %6) #7
  %15 = load ptr, ptr %2, align 8, !tbaa !4
  %16 = getelementptr inbounds nuw %struct.lua_State, ptr %15, i32 0, i32 8
  %17 = load ptr, ptr %16, align 8, !tbaa !9
  %18 = load ptr, ptr %2, align 8, !tbaa !4
  %19 = getelementptr inbounds nuw %struct.lua_State, ptr %18, i32 0, i32 7
  %20 = load ptr, ptr %19, align 8, !tbaa !34
  %21 = ptrtoint ptr %17 to i64
  %22 = ptrtoint ptr %20 to i64
  %23 = sub i64 %21, %22
  %24 = trunc i64 %23 to i32
  store i32 %24, ptr %6, align 4, !tbaa !33
  %25 = load i32, ptr %6, align 4, !tbaa !33
  %26 = sext i32 %25 to i64
  %27 = icmp ne i64 %26, 16
  br i1 %27, label %28, label %100

28:                                               ; preds = %1
  %29 = load i32, ptr %6, align 4, !tbaa !33
  %30 = sext i32 %29 to i64
  %31 = icmp ne i64 %30, 24
  br i1 %31, label %32, label %34

32:                                               ; preds = %28
  %33 = load ptr, ptr %2, align 8, !tbaa !4
  call void @lj_err_caller(ptr noundef %33, i32 noundef 1405) #8
  unreachable

34:                                               ; preds = %28
  %35 = load ptr, ptr %2, align 8, !tbaa !4
  %36 = call i32 @lj_lib_checkint(ptr noundef %35, i32 noundef 2)
  store i32 %36, ptr %4, align 4, !tbaa !33
  br label %37

37:                                               ; preds = %95, %34
  %38 = load i32, ptr %5, align 4, !tbaa !33
  %39 = load i32, ptr %4, align 4, !tbaa !33
  %40 = icmp sgt i32 %38, %39
  br i1 %40, label %41, label %98

41:                                               ; preds = %37
  call void @llvm.lifetime.start.p0(i64 8, ptr %7) #7
  %42 = load i32, ptr %5, align 4, !tbaa !33
  %43 = load ptr, ptr %3, align 8, !tbaa !17
  %44 = getelementptr inbounds nuw %struct.GCtab, ptr %43, i32 0, i32 9
  %45 = load i32, ptr %44, align 8, !tbaa !24
  %46 = icmp ult i32 %42, %45
  br i1 %46, label %47, label %56

47:                                               ; preds = %41
  %48 = load ptr, ptr %3, align 8, !tbaa !17
  %49 = getelementptr inbounds nuw %struct.GCtab, ptr %48, i32 0, i32 5
  %50 = getelementptr inbounds nuw %struct.MRef, ptr %49, i32 0, i32 0
  %51 = load i64, ptr %50, align 8, !tbaa !19
  %52 = inttoptr i64 %51 to ptr
  %53 = load i32, ptr %5, align 4, !tbaa !33
  %54 = sext i32 %53 to i64
  %55 = getelementptr inbounds %union.TValue, ptr %52, i64 %54
  br label %61

56:                                               ; preds = %41
  %57 = load ptr, ptr %2, align 8, !tbaa !4
  %58 = load ptr, ptr %3, align 8, !tbaa !17
  %59 = load i32, ptr %5, align 4, !tbaa !33
  %60 = call ptr @lj_tab_setinth(ptr noundef %57, ptr noundef %58, i32 noundef %59)
  br label %61

61:                                               ; preds = %56, %47
  %62 = phi ptr [ %55, %47 ], [ %60, %56 ]
  store ptr %62, ptr %7, align 8, !tbaa !21
  call void @llvm.lifetime.start.p0(i64 8, ptr %8) #7
  %63 = load i32, ptr %5, align 4, !tbaa !33
  %64 = sub nsw i32 %63, 1
  %65 = load ptr, ptr %3, align 8, !tbaa !17
  %66 = getelementptr inbounds nuw %struct.GCtab, ptr %65, i32 0, i32 9
  %67 = load i32, ptr %66, align 8, !tbaa !24
  %68 = icmp ult i32 %64, %67
  br i1 %68, label %69, label %79

69:                                               ; preds = %61
  %70 = load ptr, ptr %3, align 8, !tbaa !17
  %71 = getelementptr inbounds nuw %struct.GCtab, ptr %70, i32 0, i32 5
  %72 = getelementptr inbounds nuw %struct.MRef, ptr %71, i32 0, i32 0
  %73 = load i64, ptr %72, align 8, !tbaa !19
  %74 = inttoptr i64 %73 to ptr
  %75 = load i32, ptr %5, align 4, !tbaa !33
  %76 = sub nsw i32 %75, 1
  %77 = sext i32 %76 to i64
  %78 = getelementptr inbounds %union.TValue, ptr %74, i64 %77
  br label %84

79:                                               ; preds = %61
  %80 = load ptr, ptr %3, align 8, !tbaa !17
  %81 = load i32, ptr %5, align 4, !tbaa !33
  %82 = sub nsw i32 %81, 1
  %83 = call ptr @lj_tab_getinth(ptr noundef %80, i32 noundef %82)
  br label %84

84:                                               ; preds = %79, %69
  %85 = phi ptr [ %78, %69 ], [ %83, %79 ]
  store ptr %85, ptr %8, align 8, !tbaa !21
  %86 = load ptr, ptr %8, align 8, !tbaa !21
  %87 = icmp ne ptr %86, null
  br i1 %87, label %88, label %92

88:                                               ; preds = %84
  %89 = load ptr, ptr %2, align 8, !tbaa !4
  %90 = load ptr, ptr %7, align 8, !tbaa !21
  %91 = load ptr, ptr %8, align 8, !tbaa !21
  call void @copyTV(ptr noundef %89, ptr noundef %90, ptr noundef %91)
  br label %94

92:                                               ; preds = %84
  %93 = load ptr, ptr %7, align 8, !tbaa !21
  store i64 -1, ptr %93, align 8, !tbaa !16
  br label %94

94:                                               ; preds = %92, %88
  call void @llvm.lifetime.end.p0(i64 8, ptr %8) #7
  call void @llvm.lifetime.end.p0(i64 8, ptr %7) #7
  br label %95

95:                                               ; preds = %94
  %96 = load i32, ptr %5, align 4, !tbaa !33
  %97 = add nsw i32 %96, -1
  store i32 %97, ptr %5, align 4, !tbaa !33
  br label %37, !llvm.loop !35

98:                                               ; preds = %37
  %99 = load i32, ptr %4, align 4, !tbaa !33
  store i32 %99, ptr %5, align 4, !tbaa !33
  br label %100

100:                                              ; preds = %98, %1
  call void @llvm.lifetime.start.p0(i64 8, ptr %9) #7
  %101 = load i32, ptr %5, align 4, !tbaa !33
  %102 = load ptr, ptr %3, align 8, !tbaa !17
  %103 = getelementptr inbounds nuw %struct.GCtab, ptr %102, i32 0, i32 9
  %104 = load i32, ptr %103, align 8, !tbaa !24
  %105 = icmp ult i32 %101, %104
  br i1 %105, label %106, label %115

106:                                              ; preds = %100
  %107 = load ptr, ptr %3, align 8, !tbaa !17
  %108 = getelementptr inbounds nuw %struct.GCtab, ptr %107, i32 0, i32 5
  %109 = getelementptr inbounds nuw %struct.MRef, ptr %108, i32 0, i32 0
  %110 = load i64, ptr %109, align 8, !tbaa !19
  %111 = inttoptr i64 %110 to ptr
  %112 = load i32, ptr %5, align 4, !tbaa !33
  %113 = sext i32 %112 to i64
  %114 = getelementptr inbounds %union.TValue, ptr %111, i64 %113
  br label %120

115:                                              ; preds = %100
  %116 = load ptr, ptr %2, align 8, !tbaa !4
  %117 = load ptr, ptr %3, align 8, !tbaa !17
  %118 = load i32, ptr %5, align 4, !tbaa !33
  %119 = call ptr @lj_tab_setinth(ptr noundef %116, ptr noundef %117, i32 noundef %118)
  br label %120

120:                                              ; preds = %115, %106
  %121 = phi ptr [ %114, %106 ], [ %119, %115 ]
  store ptr %121, ptr %9, align 8, !tbaa !21
  %122 = load ptr, ptr %2, align 8, !tbaa !4
  %123 = load ptr, ptr %9, align 8, !tbaa !21
  %124 = load ptr, ptr %2, align 8, !tbaa !4
  %125 = getelementptr inbounds nuw %struct.lua_State, ptr %124, i32 0, i32 8
  %126 = load ptr, ptr %125, align 8, !tbaa !9
  %127 = getelementptr inbounds %union.TValue, ptr %126, i64 -1
  call void @copyTV(ptr noundef %122, ptr noundef %123, ptr noundef %127)
  %128 = load ptr, ptr %9, align 8, !tbaa !21
  %129 = load i64, ptr %128, align 8, !tbaa !16
  %130 = ashr i64 %129, 47
  %131 = trunc i64 %130 to i32
  %132 = sub i32 %131, -4
  %133 = icmp ugt i32 %132, -10
  br i1 %133, label %134, label %159

134:                                              ; preds = %120
  %135 = load ptr, ptr %9, align 8, !tbaa !21
  %136 = getelementptr inbounds nuw %struct.GCRef, ptr %135, i32 0, i32 0
  %137 = load i64, ptr %136, align 8, !tbaa !16
  %138 = and i64 %137, 140737488355327
  %139 = inttoptr i64 %138 to ptr
  %140 = getelementptr inbounds nuw %struct.GChead, ptr %139, i32 0, i32 1
  %141 = load i8, ptr %140, align 8, !tbaa !16
  %142 = zext i8 %141 to i32
  %143 = and i32 %142, 3
  %144 = icmp ne i32 %143, 0
  br i1 %144, label %145, label %159

145:                                              ; preds = %134
  %146 = load ptr, ptr %3, align 8, !tbaa !17
  %147 = getelementptr inbounds nuw %struct.GChead, ptr %146, i32 0, i32 1
  %148 = load i8, ptr %147, align 8, !tbaa !16
  %149 = zext i8 %148 to i32
  %150 = and i32 %149, 4
  %151 = icmp ne i32 %150, 0
  br i1 %151, label %152, label %159

152:                                              ; preds = %145
  %153 = load ptr, ptr %2, align 8, !tbaa !4
  %154 = getelementptr inbounds nuw %struct.lua_State, ptr %153, i32 0, i32 5
  %155 = getelementptr inbounds nuw %struct.MRef, ptr %154, i32 0, i32 0
  %156 = load i64, ptr %155, align 8, !tbaa !36
  %157 = inttoptr i64 %156 to ptr
  %158 = load ptr, ptr %3, align 8, !tbaa !17
  call void @lj_gc_barrierback(ptr noundef %157, ptr noundef %158)
  br label %159

159:                                              ; preds = %152, %145, %134, %120
  call void @llvm.lifetime.end.p0(i64 8, ptr %9) #7
  call void @llvm.lifetime.end.p0(i64 4, ptr %6) #7
  call void @llvm.lifetime.end.p0(i64 4, ptr %5) #7
  call void @llvm.lifetime.end.p0(i64 4, ptr %4) #7
  call void @llvm.lifetime.end.p0(i64 8, ptr %3) #7
  ret i32 0
}