; Function Attrs: nounwind uwtable
define internal noundef i32 @lj_cf_table_insert(ptr noundef %0) #0 {
  %2 = tail call ptr @lj_lib_checktab(ptr noundef %0, i32 noundef 1) #4
  %3 = tail call i32 @lj_tab_len(ptr noundef %2) #4
  %4 = add i32 %3, 1
  %5 = getelementptr inbounds nuw i8, ptr %0, i64 40
  %6 = load ptr, ptr %5, align 8, !tbaa !4
  %7 = getelementptr inbounds nuw i8, ptr %0, i64 32
  %8 = load ptr, ptr %7, align 8, !tbaa !23
  %9 = ptrtoint ptr %6 to i64
  %10 = ptrtoint ptr %8 to i64
  %11 = sub i64 %9, %10
  %trunc = trunc i64 %11 to i32
  switch i32 %trunc, label %12 [
    i32 16, label %.loopexit
    i32 24, label %13
  ]

12:                                               ; preds = %1
  tail call void @lj_err_caller(ptr noundef nonnull %0, i32 noundef 1405) #5
  unreachable

13:                                               ; preds = %1
  %14 = tail call i32 @lj_lib_checkint(ptr noundef nonnull %0, i32 noundef 2) #4
  %.not = icmp slt i32 %3, %14
  br i1 %.not, label %.loopexit, label %.lr.ph

.lr.ph:                                           ; preds = %13
  %15 = getelementptr inbounds nuw i8, ptr %2, i64 48
  %16 = getelementptr inbounds nuw i8, ptr %2, i64 16
  %17 = sext i32 %4 to i64
  %18 = sext i32 %14 to i64
  br label %19

19:                                               ; preds = %.lr.ph, %44
  %indvars.iv = phi i64 [ %17, %.lr.ph ], [ %indvars.iv.next, %44 ]
  %20 = load i32, ptr %15, align 8, !tbaa !17
  %21 = trunc nsw i64 %indvars.iv to i32
  %22 = icmp ugt i32 %20, %21
  br i1 %22, label %23, label %27

23:                                               ; preds = %19
  %24 = load i64, ptr %16, align 8, !tbaa !15
  %25 = inttoptr i64 %24 to ptr
  %26 = getelementptr inbounds %union.TValue, ptr %25, i64 %indvars.iv
  br label %29

27:                                               ; preds = %19
  %28 = tail call ptr @lj_tab_setinth(ptr noundef nonnull %0, ptr noundef nonnull %2, i32 noundef %21) #4
  %.pre = load i32, ptr %15, align 8, !tbaa !17
  br label %29

29:                                               ; preds = %27, %23
  %30 = phi i32 [ %20, %23 ], [ %.pre, %27 ]
  %31 = phi ptr [ %26, %23 ], [ %28, %27 ]
  %indvars.iv.next = add nsw i64 %indvars.iv, -1
  %32 = trunc nsw i64 %indvars.iv.next to i32
  %33 = icmp ugt i32 %30, %32
  br i1 %33, label %34, label %38

34:                                               ; preds = %29
  %35 = load i64, ptr %16, align 8, !tbaa !15
  %36 = inttoptr i64 %35 to ptr
  %37 = getelementptr inbounds %union.TValue, ptr %36, i64 %indvars.iv.next
  br label %40

38:                                               ; preds = %29
  %39 = tail call ptr @lj_tab_getinth(ptr noundef nonnull %2, i32 noundef %32) #4
  br label %40

40:                                               ; preds = %38, %34
  %41 = phi ptr [ %37, %34 ], [ %39, %38 ]
  %.not52 = icmp eq ptr %41, null
  br i1 %.not52, label %44, label %42

42:                                               ; preds = %40
  %43 = load i64, ptr %41, align 8, !tbaa !14
  br label %44

44:                                               ; preds = %40, %42
  %storemerge = phi i64 [ %43, %42 ], [ -1, %40 ]
  store i64 %storemerge, ptr %31, align 8, !tbaa !14
  %45 = icmp sgt i64 %indvars.iv.next, %18
  br i1 %45, label %19, label %.loopexit, !llvm.loop !24

.loopexit:                                        ; preds = %44, %13, %1
  %.0 = phi i32 [ %4, %1 ], [ %14, %13 ], [ %14, %44 ]
  %46 = getelementptr inbounds nuw i8, ptr %2, i64 48
  %47 = load i32, ptr %46, align 8, !tbaa !17
  %48 = icmp ult i32 %.0, %47
  br i1 %48, label %49, label %55

49:                                               ; preds = %.loopexit
  %50 = getelementptr inbounds nuw i8, ptr %2, i64 16
  %51 = load i64, ptr %50, align 8, !tbaa !15
  %52 = inttoptr i64 %51 to ptr
  %53 = sext i32 %.0 to i64
  %54 = getelementptr inbounds %union.TValue, ptr %52, i64 %53
  br label %57

55:                                               ; preds = %.loopexit
  %56 = tail call ptr @lj_tab_setinth(ptr noundef %0, ptr noundef nonnull %2, i32 noundef %.0) #4
  br label %57

57:                                               ; preds = %55, %49
  %58 = phi ptr [ %54, %49 ], [ %56, %55 ]
  %59 = load ptr, ptr %5, align 8, !tbaa !4
  %60 = getelementptr inbounds i8, ptr %59, i64 -8
  %61 = load i64, ptr %60, align 8, !tbaa !14
  store i64 %61, ptr %58, align 8, !tbaa !14
  %62 = ashr i64 %61, 47
  %63 = trunc nsw i64 %62 to i32
  %64 = add nsw i32 %63, 13
  %65 = icmp ult i32 %64, 9
  br i1 %65, label %66, label %85

66:                                               ; preds = %57
  %67 = and i64 %61, 140737488355327
  %68 = inttoptr i64 %67 to ptr
  %69 = getelementptr inbounds nuw i8, ptr %68, i64 8
  %70 = load i8, ptr %69, align 8, !tbaa !14
  %71 = and i8 %70, 3
  %.not50 = icmp eq i8 %71, 0
  br i1 %.not50, label %85, label %72

72:                                               ; preds = %66
  %73 = getelementptr inbounds nuw i8, ptr %2, i64 8
  %74 = load i8, ptr %73, align 8, !tbaa !14
  %75 = and i8 %74, 4
  %.not51 = icmp eq i8 %75, 0
  br i1 %.not51, label %85, label %76

76:                                               ; preds = %72
  %77 = getelementptr inbounds nuw i8, ptr %0, i64 16
  %78 = load i64, ptr %77, align 8, !tbaa !25
  %79 = inttoptr i64 %78 to ptr
  %80 = and i8 %74, -5
  store i8 %80, ptr %73, align 8, !tbaa !14
  %81 = getelementptr inbounds nuw i8, ptr %79, i64 64
  %82 = load i64, ptr %81, align 8, !tbaa !26
  %83 = getelementptr inbounds nuw i8, ptr %2, i64 24
  store i64 %82, ptr %83, align 8, !tbaa !37
  %84 = ptrtoint ptr %2 to i64
  store i64 %84, ptr %81, align 8, !tbaa !26
  br label %85

85:                                               ; preds = %76, %72, %66, %57
  ret i32 0
}